(dp0
S'options'
p1
(dp2
I17
(dp3
VRHOST
p4
S'10.10.10.11'
p5
ssI6
(dp6
VRHOST
p7
S'10.10.11.12'
p8
sVRPORT
p9
S'4444'
p10
sssS'goptions'
p11
(dp12
S'LPORT'
p13
S'7777'
p14
sS'RHOST'
p15
S'10.10.10.21'
p16
sS'RPORT'
p17
S'4444'
p18
sS'LHOST'
p19
S'10.10.10.1'
p20
ss.